TN:
SF:/home/runner/work/Logger/Logger/Logger.cpp
FN:10,13,_ZN6LoggerC2Ev
FN:109,116,_ZN6Logger19setLogFileSizeLimitERKm
FN:118,139,_ZN6Logger20logFileNameGeneratorB5cxx11Ev
FN:141,153,_ZN6Logger13rotateLogFileEv
FN:15,19,_ZN6LoggerD2Ev
FN:21,27,_ZN6Logger10setLogFileERKNSt7__cxx1112basic_stringIcSt11char_traitsIcESaIcEEE
FN:29,33,_ZN6Logger5closeEv
FN:36,39,_ZN6Logger15setMaxSizeOfLogERKm
FN:41,43,_ZN6Logger11setLogLevelE8LogLevel
FN:45,62,_ZN6Logger15setPathToLogDirERKNSt7__cxx1112basic_stringIcSt11char_traitsIcESaIcEEE
FN:5,8,_ZN6Logger11getInstanceEv
FN:64,72,_ZN6Logger16showOnlyOneLevelEb8LogLevel
FN:74,107,_ZN6Logger3logERKNSt7__cxx1112basic_stringIcSt11char_traitsIcESaIcEEE8LogLevel
FNDA:1,_ZN6LoggerC2Ev
FNDA:0,_ZN6Logger19setLogFileSizeLimitERKm
FNDA:1,_ZN6Logger20logFileNameGeneratorB5cxx11Ev
FNDA:6,_ZN6Logger13rotateLogFileEv
FNDA:1,_ZN6LoggerD2Ev
FNDA:4,_ZN6Logger10setLogFileERKNSt7__cxx1112basic_stringIcSt11char_traitsIcESaIcEEE
FNDA:1,_ZN6Logger5closeEv
FNDA:1,_ZN6Logger15setMaxSizeOfLogERKm
FNDA:1,_ZN6Logger11setLogLevelE8LogLevel
FNDA:0,_ZN6Logger15setPathToLogDirERKNSt7__cxx1112basic_stringIcSt11char_traitsIcESaIcEEE
FNDA:2,_ZN6Logger11getInstanceEv
FNDA:0,_ZN6Logger16showOnlyOneLevelEb8LogLevel
FNDA:6,_ZN6Logger3logERKNSt7__cxx1112basic_stringIcSt11char_traitsIcESaIcEEE8LogLevel
FNF:13
FNH:10
DA:5,2
DA:6,2
DA:7,2
DA:10,3
DA:11,1
DA:12,1
DA:13,1
DA:15,1
DA:16,1
DA:17,1
DA:19,1
DA:21,4
DA:22,4
DA:23,1
DA:25,4
DA:26,4
DA:27,4
DA:29,1
DA:30,1
DA:31,1
DA:33,1
DA:36,1
DA:38,1
DA:39,1
DA:41,1
DA:42,1
DA:43,1
DA:45,0
DA:47,0
DA:51,0
DA:53,0
DA:55,0
DA:56,0
DA:60,0
DA:62,0
DA:64,0
DA:66,0
DA:68,0
DA:71,0
DA:72,0
DA:74,6
DA:75,6
DA:76,0
DA:77,0
DA:81,6
DA:82,0
DA:86,6
DA:87,6
DA:89,6
DA:91,6
DA:92,6
DA:93,6
DA:94,0
DA:95,0
DA:96,0
DA:99,12
DA:101,6
DA:102,6
DA:106,6
DA:107,6
DA:109,0
DA:111,0
DA:113,0
DA:116,0
DA:118,1
DA:120,1
DA:122,1
DA:124,3
DA:126,1
DA:128,1
DA:130,0
DA:131,0
DA:135,1
DA:138,2
DA:139,0
DA:141,6
DA:143,6
DA:144,0
DA:147,6
DA:148,1
DA:150,1
DA:151,1
DA:152,1
LF:83
LH:56
end_of_record
